target datalayout = "e-m:e-p270:32:32-p271:32:32-p272:64:64-i64:64-i128:128-f80:128-n8:16:32:64-S128"
target triple = "x86_64-pc-linux-gnu"

%"class.cv::WBaseStream" = type { ptr, ptr, ptr, ptr, i32, i32, ptr, i8, ptr }

; Function Attrs: mustprogress uwtable
define hidden noundef zeroext i1 @_ZN2cv12WLByteStream7putByteEi(ptr noundef nonnull align 8 dereferenceable(64) %0, i32 noundef %1) #1 align 2 {
  %3 = alloca i1, align 1
  %4 = alloca ptr, align 8
  %5 = alloca i32, align 4
  store ptr %0, ptr %4, align 8, !tbaa !75
  store i32 %1, ptr %5, align 4, !tbaa !27
  %6 = load ptr, ptr %4, align 8
  %7 = load i32, ptr %5, align 4, !tbaa !27
  %8 = trunc i32 %7 to i8
  %9 = getelementptr inbounds nuw %"class.cv::WBaseStream", ptr %6, i32 0, i32 3
  %10 = load ptr, ptr %9, align 8, !tbaa !61
  %11 = getelementptr inbounds nuw i8, ptr %10, i32 1
  store ptr %11, ptr %9, align 8, !tbaa !61
  store i8 %8, ptr %10, align 1, !tbaa !52
  %12 = getelementptr inbounds nuw %"class.cv::WBaseStream", ptr %6, i32 0, i32 3
  %13 = load ptr, ptr %12, align 8, !tbaa !61
  %14 = getelementptr inbounds nuw %"class.cv::WBaseStream", ptr %6, i32 0, i32 2
  %15 = load ptr, ptr %14, align 8, !tbaa !64
  %16 = icmp uge ptr %13, %15
  br i1 %16, label %17, label %22

17:                                               ; preds = %2
  %18 = load ptr, ptr %6, align 8, !tbaa !21
  %19 = getelementptr inbounds ptr, ptr %18, i64 5
  %20 = load ptr, ptr %19, align 8
  %21 = call noundef zeroext i1 %20(ptr noundef nonnull align 8 dereferenceable(64) %6)
  store i1 %21, ptr %3, align 1
  br label %23

22:                                               ; preds = %2
  store i1 true, ptr %3, align 1
  br label %23

23:                                               ; preds = %22, %17
  %24 = load i1, ptr %3, align 1
  ret i1 %24
}

; Function Attrs: mustprogress uwtable
define hidden noundef zeroext i1 @_ZN2cv12WMByteStream8putDWordEi(ptr noundef nonnull align 8 dereferenceable(64) %0, i32 noundef %1) #1 align 2 {
  %3 = alloca i1, align 1
  %4 = alloca ptr, align 8
  %5 = alloca i32, align 4
  %6 = alloca ptr, align 8
  %7 = alloca i32, align 4
  store ptr %0, ptr %4, align 8, !tbaa !79
  store i32 %1, ptr %5, align 4, !tbaa !27
  %8 = load ptr, ptr %4, align 8
  call void @llvm.lifetime.start.p0(i64 8, ptr %6) #17
  %9 = getelementptr inbounds nuw %"class.cv::WBaseStream", ptr %8, i32 0, i32 3
  %10 = load ptr, ptr %9, align 8, !tbaa !61
  store ptr %10, ptr %6, align 8, !tbaa !32
  %11 = load ptr, ptr %6, align 8, !tbaa !32
  %12 = getelementptr inbounds i8, ptr %11, i64 3
  %13 = getelementptr inbounds nuw %"class.cv::WBaseStream", ptr %8, i32 0, i32 2
  %14 = load ptr, ptr %13, align 8, !tbaa !64
  %15 = icmp ult ptr %12, %14
  br i1 %15, label %16, label %50

16:                                               ; preds = %2
  %17 = load i32, ptr %5, align 4, !tbaa !27
  %18 = ashr i32 %17, 24
  %19 = trunc i32 %18 to i8
  %20 = load ptr, ptr %6, align 8, !tbaa !32
  %21 = getelementptr inbounds i8, ptr %20, i64 0
  store i8 %19, ptr %21, align 1, !tbaa !52
  %22 = load i32, ptr %5, align 4, !tbaa !27
  %23 = ashr i32 %22, 16
  %24 = trunc i32 %23 to i8
  %25 = load ptr, ptr %6, align 8, !tbaa !32
  %26 = getelementptr inbounds i8, ptr %25, i64 1
  store i8 %24, ptr %26, align 1, !tbaa !52
  %27 = load i32, ptr %5, align 4, !tbaa !27
  %28 = ashr i32 %27, 8
  %29 = trunc i32 %28 to i8
  %30 = load ptr, ptr %6, align 8, !tbaa !32
  %31 = getelementptr inbounds i8, ptr %30, i64 2
  store i8 %29, ptr %31, align 1, !tbaa !52
  %32 = load i32, ptr %5, align 4, !tbaa !27
  %33 = trunc i32 %32 to i8
  %34 = load ptr, ptr %6, align 8, !tbaa !32
  %35 = getelementptr inbounds i8, ptr %34, i64 3
  store i8 %33, ptr %35, align 1, !tbaa !52
  %36 = load ptr, ptr %6, align 8, !tbaa !32
  %37 = getelementptr inbounds i8, ptr %36, i64 4
  %38 = getelementptr inbounds nuw %"class.cv::WBaseStream", ptr %8, i32 0, i32 3
  store ptr %37, ptr %38, align 8, !tbaa !61
  %39 = getelementptr inbounds nuw %"class.cv::WBaseStream", ptr %8, i32 0, i32 3
  %40 = load ptr, ptr %39, align 8, !tbaa !61
  %41 = getelementptr inbounds nuw %"class.cv::WBaseStream", ptr %8, i32 0, i32 2
  %42 = load ptr, ptr %41, align 8, !tbaa !64
  %43 = icmp eq ptr %40, %42
  br i1 %43, label %44, label %49

44:                                               ; preds = %16
  %45 = load ptr, ptr %8, align 8, !tbaa !21
  %46 = getelementptr inbounds ptr, ptr %45, i64 5
  %47 = load ptr, ptr %46, align 8
  %48 = call noundef zeroext i1 %47(ptr noundef nonnull align 8 dereferenceable(64) %8)
  store i1 %48, ptr %3, align 1
  store i32 1, ptr %7, align 4
  br label %63

49:                                               ; preds = %16
  br label %62

50:                                               ; preds = %2
  %51 = load i32, ptr %5, align 4, !tbaa !27
  %52 = ashr i32 %51, 24
  %53 = call noundef zeroext i1 @_ZN2cv12WLByteStream7putByteEi(ptr noundef nonnull align 8 dereferenceable(64) %8, i32 noundef %52)
  %54 = load i32, ptr %5, align 4, !tbaa !27
  %55 = ashr i32 %54, 16
  %56 = call noundef zeroext i1 @_ZN2cv12WLByteStream7putByteEi(ptr noundef nonnull align 8 dereferenceable(64) %8, i32 noundef %55)
  %57 = load i32, ptr %5, align 4, !tbaa !27
  %58 = ashr i32 %57, 8
  %59 = call noundef zeroext i1 @_ZN2cv12WLByteStream7putByteEi(ptr noundef nonnull align 8 dereferenceable(64) %8, i32 noundef %58)
  %60 = load i32, ptr %5, align 4, !tbaa !27
  %61 = call noundef zeroext i1 @_ZN2cv12WLByteStream7putByteEi(ptr noundef nonnull align 8 dereferenceable(64) %8, i32 noundef %60)
  br label %62

62:                                               ; preds = %50, %49
  store i1 true, ptr %3, align 1
  store i32 1, ptr %7, align 4
  br label %63

63:                                               ; preds = %62, %44
  call void @llvm.lifetime.end.p0(i64 8, ptr %6) #17
  %64 = load i1, ptr %3, align 1
  ret i1 %64
}