; Function Attrs: mustprogress uwtable
define hidden noundef zeroext i1 @_ZN2cv12WMByteStream8putDWordEi(ptr noundef nonnull align 8 dereferenceable(64) %0, i32 noundef %1) local_unnamed_addr #1 align 2 {
  %3 = getelementptr inbounds nuw i8, ptr %0, i64 24
  %4 = load ptr, ptr %3, align 8, !tbaa !55
  %5 = getelementptr inbounds nuw i8, ptr %4, i64 3
  %6 = getelementptr inbounds nuw i8, ptr %0, i64 16
  %7 = load ptr, ptr %6, align 8, !tbaa !54
  %8 = icmp ult ptr %5, %7
  %9 = lshr i32 %1, 24
  %10 = trunc nuw i32 %9 to i8
  br i1 %8, label %11, label %27

11:                                               ; preds = %2
  store i8 %10, ptr %4, align 1, !tbaa !42
  %12 = lshr i32 %1, 16
  %13 = trunc i32 %12 to i8
  %14 = getelementptr inbounds nuw i8, ptr %4, i64 1
  store i8 %13, ptr %14, align 1, !tbaa !42
  %15 = lshr i32 %1, 8
  %16 = trunc i32 %15 to i8
  %17 = getelementptr inbounds nuw i8, ptr %4, i64 2
  store i8 %16, ptr %17, align 1, !tbaa !42
  %18 = trunc i32 %1 to i8
  store i8 %18, ptr %5, align 1, !tbaa !42
  %19 = getelementptr inbounds nuw i8, ptr %4, i64 4
  store ptr %19, ptr %3, align 8, !tbaa !55
  %20 = load ptr, ptr %6, align 8, !tbaa !54
  %21 = icmp eq ptr %19, %20
  br i1 %21, label %22, label %_ZN2cv12WLByteStream7putByteEi.exit24

22:                                               ; preds = %11
  %23 = load ptr, ptr %0, align 8, !tbaa !19
  %24 = getelementptr inbounds nuw i8, ptr %23, i64 40
  %25 = load ptr, ptr %24, align 8
  %26 = tail call noundef zeroext i1 %25(ptr noundef nonnull align 8 dereferenceable(64) %0)
  br label %_ZN2cv12WLByteStream7putByteEi.exit24

27:                                               ; preds = %2
  %28 = getelementptr inbounds nuw i8, ptr %4, i64 1
  store ptr %28, ptr %3, align 8, !tbaa !55
  store i8 %10, ptr %4, align 1, !tbaa !42
  %29 = load ptr, ptr %3, align 8, !tbaa !55
  %30 = load ptr, ptr %6, align 8, !tbaa !54
  %.not.i = icmp ult ptr %29, %30
  br i1 %.not.i, label %_ZN2cv12WLByteStream7putByteEi.exit, label %31

31:                                               ; preds = %27
  %32 = load ptr, ptr %0, align 8, !tbaa !19
  %33 = getelementptr inbounds nuw i8, ptr %32, i64 40
  %34 = load ptr, ptr %33, align 8
  %35 = tail call noundef zeroext i1 %34(ptr noundef nonnull align 8 dereferenceable(64) %0)
  %.pre = load ptr, ptr %3, align 8, !tbaa !55
  br label %_ZN2cv12WLByteStream7putByteEi.exit

_ZN2cv12WLByteStream7putByteEi.exit:              ; preds = %27, %31
  %36 = phi ptr [ %29, %27 ], [ %.pre, %31 ]
  %37 = lshr i32 %1, 16
  %38 = trunc i32 %37 to i8
  %39 = getelementptr inbounds nuw i8, ptr %36, i64 1
  store ptr %39, ptr %3, align 8, !tbaa !55
  store i8 %38, ptr %36, align 1, !tbaa !42
  %40 = load ptr, ptr %3, align 8, !tbaa !55
  %41 = load ptr, ptr %6, align 8, !tbaa !54
  %.not.i16 = icmp ult ptr %40, %41
  br i1 %.not.i16, label %_ZN2cv12WLByteStream7putByteEi.exit18, label %42

42:                                               ; preds = %_ZN2cv12WLByteStream7putByteEi.exit
  %43 = load ptr, ptr %0, align 8, !tbaa !19
  %44 = getelementptr inbounds nuw i8, ptr %43, i64 40
  %45 = load ptr, ptr %44, align 8
  %46 = tail call noundef zeroext i1 %45(ptr noundef nonnull align 8 dereferenceable(64) %0)
  %.pre25 = load ptr, ptr %3, align 8, !tbaa !55
  br label %_ZN2cv12WLByteStream7putByteEi.exit18

_ZN2cv12WLByteStream7putByteEi.exit18:            ; preds = %_ZN2cv12WLByteStream7putByteEi.exit, %42
  %47 = phi ptr [ %40, %_ZN2cv12WLByteStream7putByteEi.exit ], [ %.pre25, %42 ]
  %48 = lshr i32 %1, 8
  %49 = trunc i32 %48 to i8
  %50 = getelementptr inbounds nuw i8, ptr %47, i64 1
  store ptr %50, ptr %3, align 8, !tbaa !55
  store i8 %49, ptr %47, align 1, !tbaa !42
  %51 = load ptr, ptr %3, align 8, !tbaa !55
  %52 = load ptr, ptr %6, align 8, !tbaa !54
  %.not.i19 = icmp ult ptr %51, %52
  br i1 %.not.i19, label %_ZN2cv12WLByteStream7putByteEi.exit21, label %53

53:                                               ; preds = %_ZN2cv12WLByteStream7putByteEi.exit18
  %54 = load ptr, ptr %0, align 8, !tbaa !19
  %55 = getelementptr inbounds nuw i8, ptr %54, i64 40
  %56 = load ptr, ptr %55, align 8
  %57 = tail call noundef zeroext i1 %56(ptr noundef nonnull align 8 dereferenceable(64) %0)
  %.pre26 = load ptr, ptr %3, align 8, !tbaa !55
  br label %_ZN2cv12WLByteStream7putByteEi.exit21

_ZN2cv12WLByteStream7putByteEi.exit21:            ; preds = %_ZN2cv12WLByteStream7putByteEi.exit18, %53
  %58 = phi ptr [ %51, %_ZN2cv12WLByteStream7putByteEi.exit18 ], [ %.pre26, %53 ]
  %59 = trunc i32 %1 to i8
  %60 = getelementptr inbounds nuw i8, ptr %58, i64 1
  store ptr %60, ptr %3, align 8, !tbaa !55
  store i8 %59, ptr %58, align 1, !tbaa !42
  %61 = load ptr, ptr %3, align 8, !tbaa !55
  %62 = load ptr, ptr %6, align 8, !tbaa !54
  %.not.i22 = icmp ult ptr %61, %62
  br i1 %.not.i22, label %_ZN2cv12WLByteStream7putByteEi.exit24, label %63

63:                                               ; preds = %_ZN2cv12WLByteStream7putByteEi.exit21
  %64 = load ptr, ptr %0, align 8, !tbaa !19
  %65 = getelementptr inbounds nuw i8, ptr %64, i64 40
  %66 = load ptr, ptr %65, align 8
  %67 = tail call noundef zeroext i1 %66(ptr noundef nonnull align 8 dereferenceable(64) %0)
  br label %_ZN2cv12WLByteStream7putByteEi.exit24

_ZN2cv12WLByteStream7putByteEi.exit24:            ; preds = %63, %_ZN2cv12WLByteStream7putByteEi.exit21, %11, %22
  %.0 = phi i1 [ %26, %22 ], [ true, %11 ], [ true, %_ZN2cv12WLByteStream7putByteEi.exit21 ], [ true, %63 ]
  ret i1 %.0
}